target datalayout = "e-m:e-p270:32:32-p271:32:32-p272:64:64-i64:64-i128:128-f80:128-n8:16:32:64-S128"
target triple = "x86_64-pc-linux-gnu"

%struct._zend_refcounted_h = type { i32, %union.anon.4 }
%union.anon.4 = type { i32 }
%struct._zend_string = type { %struct._zend_refcounted_h, i64, i64, [1 x i8] }
%struct.smart_str = type { ptr, i64 }

; Function Attrs: nounwind uwtable
define internal void @zend_ast_export_str(ptr noundef %0, ptr noundef %1) #0 {
  %3 = alloca ptr, align 8
  %4 = alloca i64, align 8
  %5 = alloca i8, align 1
  %6 = alloca ptr, align 8
  %7 = alloca i8, align 1
  %8 = alloca i8, align 1
  %9 = alloca i64, align 8
  %10 = alloca ptr, align 8
  %11 = alloca i64, align 8
  %12 = alloca i8, align 1
  %13 = alloca ptr, align 8
  %14 = alloca i8, align 1
  %15 = alloca i8, align 1
  %16 = alloca i64, align 8
  %17 = alloca ptr, align 8
  %18 = alloca i64, align 8
  %19 = alloca i8, align 1
  %20 = alloca ptr, align 8
  %21 = alloca i8, align 1
  %22 = alloca i8, align 1
  %23 = alloca i64, align 8
  %24 = alloca ptr, align 8
  %25 = alloca i8, align 1
  %26 = alloca ptr, align 8
  %27 = alloca i8, align 1
  %28 = alloca ptr, align 8
  %29 = alloca i8, align 1
  %30 = alloca ptr, align 8
  %31 = alloca ptr, align 8
  %32 = alloca i64, align 8
  %33 = alloca i8, align 1
  store ptr %0, ptr %30, align 8
  store ptr %1, ptr %31, align 8
  store i64 0, ptr %32, align 8
  br label %34

34:                                               ; preds = %202, %2
  %35 = load i64, ptr %32, align 8
  %36 = load ptr, ptr %31, align 8
  %37 = getelementptr inbounds %struct._zend_string, ptr %36, i32 0, i32 2
  %38 = load i64, ptr %37, align 8
  %39 = icmp ult i64 %35, %38
  br i1 %39, label %40, label %205

40:                                               ; preds = %34
  %41 = load ptr, ptr %31, align 8
  %42 = getelementptr inbounds %struct._zend_string, ptr %41, i32 0, i32 3
  %43 = load i64, ptr %32, align 8
  %44 = getelementptr inbounds [1 x i8], ptr %42, i64 0, i64 %43
  %45 = load i8, ptr %44, align 1
  store i8 %45, ptr %33, align 1
  %46 = load i8, ptr %33, align 1
  %47 = zext i8 %46 to i32
  %48 = icmp eq i32 %47, 39
  br i1 %48, label %53, label %49

49:                                               ; preds = %40
  %50 = load i8, ptr %33, align 1
  %51 = zext i8 %50 to i32
  %52 = icmp eq i32 %51, 92
  br i1 %52, label %53, label %151

53:                                               ; preds = %49, %40
  %54 = load ptr, ptr %30, align 8
  store ptr %54, ptr %24, align 8
  store i8 92, ptr %25, align 1
  %55 = load ptr, ptr %24, align 8
  %56 = load i8, ptr %25, align 1
  store ptr %55, ptr %20, align 8
  store i8 %56, ptr %21, align 1
  store i8 0, ptr %22, align 1
  %57 = load ptr, ptr %20, align 8
  %58 = load i8, ptr %22, align 1
  %59 = trunc i8 %58 to i1
  store ptr %57, ptr %17, align 8
  store i64 1, ptr %18, align 8
  %60 = zext i1 %59 to i8
  store i8 %60, ptr %19, align 1
  %61 = load ptr, ptr %17, align 8
  %62 = load ptr, ptr %61, align 8
  %63 = icmp ne ptr %62, null
  %64 = xor i1 %63, true
  br i1 %64, label %65, label %66

65:                                               ; preds = %53
  br label %79

66:                                               ; preds = %53
  %67 = load ptr, ptr %17, align 8
  %68 = load ptr, ptr %67, align 8
  %69 = getelementptr inbounds %struct._zend_string, ptr %68, i32 0, i32 2
  %70 = load i64, ptr %69, align 8
  %71 = load i64, ptr %18, align 8
  %72 = add i64 %71, %70
  store i64 %72, ptr %18, align 8
  %73 = load i64, ptr %18, align 8
  %74 = load ptr, ptr %17, align 8
  %75 = getelementptr inbounds %struct.smart_str, ptr %74, i32 0, i32 1
  %76 = load i64, ptr %75, align 8
  %77 = icmp uge i64 %73, %76
  br i1 %77, label %78, label %89

78:                                               ; preds = %66
  br label %79

79:                                               ; preds = %78, %65
  %80 = load i8, ptr %19, align 1
  %81 = trunc i8 %80 to i1
  br i1 %81, label %82, label %85

82:                                               ; preds = %79
  %83 = load ptr, ptr %17, align 8
  %84 = load i64, ptr %18, align 8
  call void @smart_str_realloc(ptr noundef %83, i64 noundef %84) #10
  br label %88

85:                                               ; preds = %79
  %86 = load ptr, ptr %17, align 8
  %87 = load i64, ptr %18, align 8
  call void @smart_str_erealloc(ptr noundef %86, i64 noundef %87) #10
  br label %88

88:                                               ; preds = %85, %82
  br label %89

89:                                               ; preds = %88, %66
  %90 = load i64, ptr %18, align 8
  store i64 %90, ptr %23, align 8
  %91 = load i8, ptr %21, align 1
  %92 = load ptr, ptr %20, align 8
  %93 = load ptr, ptr %92, align 8
  %94 = getelementptr inbounds %struct._zend_string, ptr %93, i32 0, i32 3
  %95 = load i64, ptr %23, align 8
  %96 = sub i64 %95, 1
  %97 = getelementptr inbounds [1 x i8], ptr %94, i64 0, i64 %96
  store i8 %91, ptr %97, align 1
  %98 = load i64, ptr %23, align 8
  %99 = load ptr, ptr %20, align 8
  %100 = load ptr, ptr %99, align 8
  %101 = getelementptr inbounds %struct._zend_string, ptr %100, i32 0, i32 2
  store i64 %98, ptr %101, align 8
  %102 = load ptr, ptr %30, align 8
  %103 = load i8, ptr %33, align 1
  store ptr %102, ptr %26, align 8
  store i8 %103, ptr %27, align 1
  %104 = load ptr, ptr %26, align 8
  %105 = load i8, ptr %27, align 1
  store ptr %104, ptr %13, align 8
  store i8 %105, ptr %14, align 1
  store i8 0, ptr %15, align 1
  %106 = load ptr, ptr %13, align 8
  %107 = load i8, ptr %15, align 1
  %108 = trunc i8 %107 to i1
  store ptr %106, ptr %10, align 8
  store i64 1, ptr %11, align 8
  %109 = zext i1 %108 to i8
  store i8 %109, ptr %12, align 1
  %110 = load ptr, ptr %10, align 8
  %111 = load ptr, ptr %110, align 8
  %112 = icmp ne ptr %111, null
  %113 = xor i1 %112, true
  br i1 %113, label %114, label %115

114:                                              ; preds = %89
  br label %128

115:                                              ; preds = %89
  %116 = load ptr, ptr %10, align 8
  %117 = load ptr, ptr %116, align 8
  %118 = getelementptr inbounds %struct._zend_string, ptr %117, i32 0, i32 2
  %119 = load i64, ptr %118, align 8
  %120 = load i64, ptr %11, align 8
  %121 = add i64 %120, %119
  store i64 %121, ptr %11, align 8
  %122 = load i64, ptr %11, align 8
  %123 = load ptr, ptr %10, align 8
  %124 = getelementptr inbounds %struct.smart_str, ptr %123, i32 0, i32 1
  %125 = load i64, ptr %124, align 8
  %126 = icmp uge i64 %122, %125
  br i1 %126, label %127, label %138

127:                                              ; preds = %115
  br label %128

128:                                              ; preds = %127, %114
  %129 = load i8, ptr %12, align 1
  %130 = trunc i8 %129 to i1
  br i1 %130, label %131, label %134

131:                                              ; preds = %128
  %132 = load ptr, ptr %10, align 8
  %133 = load i64, ptr %11, align 8
  call void @smart_str_realloc(ptr noundef %132, i64 noundef %133) #10
  br label %137

134:                                              ; preds = %128
  %135 = load ptr, ptr %10, align 8
  %136 = load i64, ptr %11, align 8
  call void @smart_str_erealloc(ptr noundef %135, i64 noundef %136) #10
  br label %137

137:                                              ; preds = %134, %131
  br label %138

138:                                              ; preds = %137, %115
  %139 = load i64, ptr %11, align 8
  store i64 %139, ptr %16, align 8
  %140 = load i8, ptr %14, align 1
  %141 = load ptr, ptr %13, align 8
  %142 = load ptr, ptr %141, align 8
  %143 = getelementptr inbounds %struct._zend_string, ptr %142, i32 0, i32 3
  %144 = load i64, ptr %16, align 8
  %145 = sub i64 %144, 1
  %146 = getelementptr inbounds [1 x i8], ptr %143, i64 0, i64 %145
  store i8 %140, ptr %146, align 1
  %147 = load i64, ptr %16, align 8
  %148 = load ptr, ptr %13, align 8
  %149 = load ptr, ptr %148, align 8
  %150 = getelementptr inbounds %struct._zend_string, ptr %149, i32 0, i32 2
  store i64 %147, ptr %150, align 8
  br label %201

151:                                              ; preds = %49
  %152 = load ptr, ptr %30, align 8
  %153 = load i8, ptr %33, align 1
  store ptr %152, ptr %28, align 8
  store i8 %153, ptr %29, align 1
  %154 = load ptr, ptr %28, align 8
  %155 = load i8, ptr %29, align 1
  store ptr %154, ptr %6, align 8
  store i8 %155, ptr %7, align 1
  store i8 0, ptr %8, align 1
  %156 = load ptr, ptr %6, align 8
  %157 = load i8, ptr %8, align 1
  %158 = trunc i8 %157 to i1
  store ptr %156, ptr %3, align 8
  store i64 1, ptr %4, align 8
  %159 = zext i1 %158 to i8
  store i8 %159, ptr %5, align 1
  %160 = load ptr, ptr %3, align 8
  %161 = load ptr, ptr %160, align 8
  %162 = icmp ne ptr %161, null
  %163 = xor i1 %162, true
  br i1 %163, label %164, label %165

164:                                              ; preds = %151
  br label %178

165:                                              ; preds = %151
  %166 = load ptr, ptr %3, align 8
  %167 = load ptr, ptr %166, align 8
  %168 = getelementptr inbounds %struct._zend_string, ptr %167, i32 0, i32 2
  %169 = load i64, ptr %168, align 8
  %170 = load i64, ptr %4, align 8
  %171 = add i64 %170, %169
  store i64 %171, ptr %4, align 8
  %172 = load i64, ptr %4, align 8
  %173 = load ptr, ptr %3, align 8
  %174 = getelementptr inbounds %struct.smart_str, ptr %173, i32 0, i32 1
  %175 = load i64, ptr %174, align 8
  %176 = icmp uge i64 %172, %175
  br i1 %176, label %177, label %188

177:                                              ; preds = %165
  br label %178

178:                                              ; preds = %177, %164
  %179 = load i8, ptr %5, align 1
  %180 = trunc i8 %179 to i1
  br i1 %180, label %181, label %184

181:                                              ; preds = %178
  %182 = load ptr, ptr %3, align 8
  %183 = load i64, ptr %4, align 8
  call void @smart_str_realloc(ptr noundef %182, i64 noundef %183) #10
  br label %187

184:                                              ; preds = %178
  %185 = load ptr, ptr %3, align 8
  %186 = load i64, ptr %4, align 8
  call void @smart_str_erealloc(ptr noundef %185, i64 noundef %186) #10
  br label %187

187:                                              ; preds = %184, %181
  br label %188

188:                                              ; preds = %187, %165
  %189 = load i64, ptr %4, align 8
  store i64 %189, ptr %9, align 8
  %190 = load i8, ptr %7, align 1
  %191 = load ptr, ptr %6, align 8
  %192 = load ptr, ptr %191, align 8
  %193 = getelementptr inbounds %struct._zend_string, ptr %192, i32 0, i32 3
  %194 = load i64, ptr %9, align 8
  %195 = sub i64 %194, 1
  %196 = getelementptr inbounds [1 x i8], ptr %193, i64 0, i64 %195
  store i8 %190, ptr %196, align 1
  %197 = load i64, ptr %9, align 8
  %198 = load ptr, ptr %6, align 8
  %199 = load ptr, ptr %198, align 8
  %200 = getelementptr inbounds %struct._zend_string, ptr %199, i32 0, i32 2
  store i64 %197, ptr %200, align 8
  br label %201

201:                                              ; preds = %188, %138
  br label %202

202:                                              ; preds = %201
  %203 = load i64, ptr %32, align 8
  %204 = add i64 %203, 1
  store i64 %204, ptr %32, align 8
  br label %34

205:                                              ; preds = %34
  ret void
}