; Function Attrs: nounwind uwtable
define internal fastcc void @zend_ast_export_str(ptr noundef %0, ptr nocapture noundef readonly %1) unnamed_addr #0 {
  %3 = getelementptr inbounds i8, ptr %1, i64 16
  %4 = load i64, ptr %3, align 8
  %.not90 = icmp eq i64 %4, 0
  br i1 %.not90, label %._crit_edge, label %.lr.ph

.lr.ph:                                           ; preds = %2
  %5 = getelementptr inbounds i8, ptr %1, i64 24
  %6 = getelementptr inbounds i8, ptr %0, i64 8
  br label %7

7:                                                ; preds = %.lr.ph, %38
  %.07389 = phi i64 [ 0, %.lr.ph ], [ %44, %38 ]
  %8 = getelementptr inbounds [1 x i8], ptr %5, i64 0, i64 %.07389
  %9 = load i8, ptr %8, align 1
  switch i8 %9, label %31 [
    i8 92, label %10
    i8 39, label %10
  ]

10:                                               ; preds = %7, %7
  %11 = load ptr, ptr %0, align 8
  %.not85 = icmp eq ptr %11, null
  br i1 %.not85, label %17, label %12

12:                                               ; preds = %10
  %13 = getelementptr inbounds i8, ptr %11, i64 16
  %14 = load i64, ptr %13, align 8
  %15 = add i64 %14, 1
  %16 = load i64, ptr %6, align 8
  %.not86 = icmp ult i64 %15, %16
  br i1 %.not86, label %18, label %17

17:                                               ; preds = %10, %12
  %.076 = phi i64 [ 1, %10 ], [ %15, %12 ]
  tail call void @smart_str_erealloc(ptr noundef nonnull %0, i64 noundef %.076) #14
  %.pre = load ptr, ptr %0, align 8
  br label %18

18:                                               ; preds = %17, %12
  %19 = phi ptr [ %.pre, %17 ], [ %11, %12 ]
  %.177 = phi i64 [ %.076, %17 ], [ %15, %12 ]
  %20 = getelementptr inbounds i8, ptr %19, i64 24
  %21 = add i64 %.177, -1
  %22 = getelementptr inbounds [1 x i8], ptr %20, i64 0, i64 %21
  store i8 92, ptr %22, align 1
  %23 = load ptr, ptr %0, align 8
  %24 = getelementptr inbounds i8, ptr %23, i64 16
  store i64 %.177, ptr %24, align 8
  %25 = load ptr, ptr %0, align 8
  %.not87 = icmp eq ptr %25, null
  br i1 %.not87, label %.sink.split, label %26

26:                                               ; preds = %18
  %27 = getelementptr inbounds i8, ptr %25, i64 16
  %28 = load i64, ptr %27, align 8
  %29 = add i64 %28, 1
  %30 = load i64, ptr %6, align 8
  %.not88 = icmp ult i64 %29, %30
  br i1 %.not88, label %38, label %.sink.split

31:                                               ; preds = %7
  %32 = load ptr, ptr %0, align 8
  %.not = icmp eq ptr %32, null
  br i1 %.not, label %.sink.split, label %33

33:                                               ; preds = %31
  %34 = getelementptr inbounds i8, ptr %32, i64 16
  %35 = load i64, ptr %34, align 8
  %36 = add i64 %35, 1
  %37 = load i64, ptr %6, align 8
  %.not84 = icmp ult i64 %36, %37
  br i1 %.not84, label %38, label %.sink.split

.sink.split:                                      ; preds = %33, %31, %26, %18
  %.0.sink = phi i64 [ 1, %18 ], [ %29, %26 ], [ 1, %31 ], [ %36, %33 ]
  tail call void @smart_str_erealloc(ptr noundef nonnull %0, i64 noundef %.0.sink) #14
  %.pre92 = load ptr, ptr %0, align 8
  br label %38

38:                                               ; preds = %.sink.split, %33, %26
  %.sink = phi ptr [ %25, %26 ], [ %32, %33 ], [ %.pre92, %.sink.split ]
  %.175.sink96 = phi i64 [ %29, %26 ], [ %36, %33 ], [ %.0.sink, %.sink.split ]
  %39 = getelementptr inbounds i8, ptr %.sink, i64 24
  %40 = add i64 %.175.sink96, -1
  %41 = getelementptr inbounds [1 x i8], ptr %39, i64 0, i64 %40
  store i8 %9, ptr %41, align 1
  %42 = load ptr, ptr %0, align 8
  %43 = getelementptr inbounds i8, ptr %42, i64 16
  store i64 %.175.sink96, ptr %43, align 8
  %44 = add nuw i64 %.07389, 1
  %45 = load i64, ptr %3, align 8
  %46 = icmp ult i64 %44, %45
  br i1 %46, label %7, label %._crit_edge

._crit_edge:                                      ; preds = %38, %2
  ret void
}